; Function Attrs: mustprogress uwtable
define void @_ZN3zmq14session_base_t19process_conn_failedEv(ptr noundef nonnull align 8 dereferenceable(1624) %0) unnamed_addr #0 align 2 personality ptr @__gxx_personality_v0 {
  %2 = tail call noalias noundef nonnull dereferenceable(32) ptr @_Znwm(i64 noundef 32) #32
  %3 = getelementptr inbounds nuw i8, ptr %2, i64 16
  store ptr %3, ptr %2, align 8, !tbaa !96
  %4 = getelementptr inbounds nuw i8, ptr %2, i64 8
  store i64 0, ptr %4, align 8, !tbaa !98
  store i8 0, ptr %3, align 1, !tbaa !100
  %5 = getelementptr inbounds nuw i8, ptr %0, i64 1584
  %6 = load ptr, ptr %5, align 8, !tbaa !95
  %7 = tail call noundef i32 @_ZNK3zmq9address_t9to_stringERNSt7__cxx1112basic_stringIcSt11char_traitsIcESaIcEEE(ptr noundef nonnull align 8 dereferenceable(80) %6, ptr noundef nonnull align 8 dereferenceable(32) %2)
  %8 = getelementptr inbounds nuw i8, ptr %0, i64 1560
  %9 = load ptr, ptr %8, align 8, !tbaa !92
  tail call void @_ZN3zmq8object_t18send_term_endpointEPNS_5own_tEPNSt7__cxx1112basic_stringIcSt11char_traitsIcESaIcEEE(ptr noundef nonnull align 8 dereferenceable(20) %0, ptr noundef %9, ptr noundef nonnull %2)
  ret void
}